target datalayout = "e-m:e-p270:32:32-p271:32:32-p272:64:64-i64:64-i128:128-f80:128-n8:16:32:64-S128"
target triple = "x86_64-pc-linux-gnu"

%struct.strbuf = type { i64, i64, ptr }
%struct.option = type { i32, i32, ptr, ptr, ptr, ptr, i32, ptr, i64, ptr, i64, ptr }
%struct.repository = type { ptr, ptr, ptr, ptr, ptr, %struct.strmap, %struct.strmap, %struct.repo_path_cache, ptr, ptr, ptr, ptr, %struct.repo_settings, ptr, ptr, ptr, ptr, ptr, ptr, i32, i32, i32, ptr, ptr, i32, i32, i8 }
%struct.strmap = type { %struct.hashmap, ptr, i8 }
%struct.hashmap = type { ptr, ptr, ptr, i32, i32, i32, i32, i8 }
%struct.repo_path_cache = type { ptr, ptr, ptr, ptr, ptr, ptr, ptr }
%struct.repo_settings = type { i32, i32, i32, i32, i32, i32, i32, i32, i32, i32, i32, i32, ptr, i32, i32, i32, i32, i32, i32, i32, i64, i64, i64 }

@__const.cmd_refs_migrate.migrate_usage = private unnamed_addr constant [2 x ptr] [ptr @.str, ptr null], align 16
@.str.4 = private unnamed_addr constant [11 x i8] c"ref-format\00", align 1
@.str.5 = private unnamed_addr constant [7 x i8] c"format\00", align 1
@.str.6 = private unnamed_addr constant [43 x i8] c"specify the reference format to convert to\00", align 1
@.str.7 = private unnamed_addr constant [8 x i8] c"dry-run\00", align 1
@.str.8 = private unnamed_addr constant [34 x i8] c"perform a non-destructive dry-run\00", align 1
@__const.cmd_refs_migrate.errbuf = private unnamed_addr constant %struct.strbuf { i64 0, i64 0, ptr @strbuf_slopbuf }, align 8
@.str.9 = private unnamed_addr constant [19 x i8] c"too many arguments\00", align 1
@.str.10 = private unnamed_addr constant [30 x i8] c"missing --ref-format=<format>\00", align 1
@.str.11 = private unnamed_addr constant [32 x i8] c"unknown ref storage format '%s'\00", align 1
@the_repository = external global ptr, align 8
@.str.12 = private unnamed_addr constant [36 x i8] c"repository already uses '%s' format\00", align 1
@.str.13 = private unnamed_addr constant [3 x i8] c"%s\00", align 1

; Function Attrs: inlinehint nounwind uwtable
define internal i32 @const_error() #6 {
  ret i32 -1
}

; Function Attrs: nounwind uwtable
define internal i32 @cmd_refs_migrate(i32 noundef %0, ptr noundef %1, ptr noundef %2, ptr noundef %3) #0 {
  %5 = alloca i32, align 4
  %6 = alloca ptr, align 8
  %7 = alloca ptr, align 8
  %8 = alloca ptr, align 8
  %9 = alloca [2 x ptr], align 16
  %10 = alloca ptr, align 8
  %11 = alloca i32, align 4
  %12 = alloca i32, align 4
  %13 = alloca [3 x %struct.option], align 16
  %14 = alloca %struct.strbuf, align 8
  %15 = alloca i32, align 4
  store i32 %0, ptr %5, align 4, !tbaa !4
  store ptr %1, ptr %6, align 8, !tbaa !8
  store ptr %2, ptr %7, align 8, !tbaa !11
  store ptr %3, ptr %8, align 8, !tbaa !13
  call void @llvm.lifetime.start.p0(i64 16, ptr %9) #8
  call void @llvm.memcpy.p0.p0.i64(ptr align 16 %9, ptr align 16 @__const.cmd_refs_migrate.migrate_usage, i64 16, i1 false)
  call void @llvm.lifetime.start.p0(i64 8, ptr %10) #8
  store ptr null, ptr %10, align 8, !tbaa !11
  call void @llvm.lifetime.start.p0(i64 4, ptr %11) #8
  call void @llvm.lifetime.start.p0(i64 4, ptr %12) #8
  store i32 0, ptr %12, align 4, !tbaa !4
  call void @llvm.lifetime.start.p0(i64 264, ptr %13) #8
  %16 = getelementptr inbounds nuw %struct.option, ptr %13, i32 0, i32 0
  store i32 10, ptr %16, align 8, !tbaa !16
  %17 = getelementptr inbounds nuw %struct.option, ptr %13, i32 0, i32 1
  store i32 0, ptr %17, align 4, !tbaa !22
  %18 = getelementptr inbounds nuw %struct.option, ptr %13, i32 0, i32 2
  store ptr @.str.4, ptr %18, align 8, !tbaa !19
  %19 = getelementptr inbounds nuw %struct.option, ptr %13, i32 0, i32 3
  store ptr %10, ptr %19, align 8, !tbaa !20
  %20 = getelementptr inbounds nuw %struct.option, ptr %13, i32 0, i32 4
  store ptr @.str.5, ptr %20, align 8, !tbaa !23
  %21 = getelementptr inbounds nuw %struct.option, ptr %13, i32 0, i32 5
  store ptr @.str.6, ptr %21, align 8, !tbaa !24
  %22 = getelementptr inbounds nuw %struct.option, ptr %13, i32 0, i32 6
  store i32 4, ptr %22, align 8, !tbaa !25
  %23 = getelementptr i8, ptr %13, i64 44
  call void @llvm.memset.p0.i64(ptr align 4 %23, i8 0, i64 4, i1 false)
  %24 = getelementptr inbounds nuw %struct.option, ptr %13, i32 0, i32 7
  store ptr null, ptr %24, align 8, !tbaa !26
  %25 = getelementptr inbounds nuw %struct.option, ptr %13, i32 0, i32 8
  store i64 0, ptr %25, align 8, !tbaa !27
  %26 = getelementptr inbounds nuw %struct.option, ptr %13, i32 0, i32 9
  store ptr null, ptr %26, align 8, !tbaa !28
  %27 = getelementptr inbounds nuw %struct.option, ptr %13, i32 0, i32 10
  store i64 0, ptr %27, align 8, !tbaa !29
  %28 = getelementptr inbounds nuw %struct.option, ptr %13, i32 0, i32 11
  store ptr null, ptr %28, align 8, !tbaa !21
  %29 = getelementptr inbounds %struct.option, ptr %13, i64 1
  %30 = getelementptr inbounds nuw %struct.option, ptr %29, i32 0, i32 0
  store i32 5, ptr %30, align 8, !tbaa !16
  %31 = getelementptr inbounds nuw %struct.option, ptr %29, i32 0, i32 1
  store i32 0, ptr %31, align 4, !tbaa !22
  %32 = getelementptr inbounds nuw %struct.option, ptr %29, i32 0, i32 2
  store ptr @.str.7, ptr %32, align 8, !tbaa !19
  %33 = getelementptr inbounds nuw %struct.option, ptr %29, i32 0, i32 3
  store ptr %12, ptr %33, align 8, !tbaa !20
  %34 = getelementptr inbounds nuw %struct.option, ptr %29, i32 0, i32 4
  store ptr null, ptr %34, align 8, !tbaa !23
  %35 = getelementptr inbounds nuw %struct.option, ptr %29, i32 0, i32 5
  store ptr @.str.8, ptr %35, align 8, !tbaa !24
  %36 = getelementptr inbounds nuw %struct.option, ptr %29, i32 0, i32 6
  store i32 2, ptr %36, align 8, !tbaa !25
  %37 = getelementptr i8, ptr %29, i64 44
  call void @llvm.memset.p0.i64(ptr align 4 %37, i8 0, i64 4, i1 false)
  %38 = getelementptr inbounds nuw %struct.option, ptr %29, i32 0, i32 7
  store ptr null, ptr %38, align 8, !tbaa !26
  %39 = getelementptr inbounds nuw %struct.option, ptr %29, i32 0, i32 8
  store i64 1, ptr %39, align 8, !tbaa !27
  %40 = getelementptr inbounds nuw %struct.option, ptr %29, i32 0, i32 9
  store ptr null, ptr %40, align 8, !tbaa !28
  %41 = getelementptr inbounds nuw %struct.option, ptr %29, i32 0, i32 10
  store i64 0, ptr %41, align 8, !tbaa !29
  %42 = getelementptr inbounds nuw %struct.option, ptr %29, i32 0, i32 11
  store ptr null, ptr %42, align 8, !tbaa !21
  %43 = getelementptr inbounds %struct.option, ptr %13, i64 2
  call void @llvm.memset.p0.i64(ptr align 8 %43, i8 0, i64 88, i1 false)
  %44 = getelementptr inbounds nuw %struct.option, ptr %43, i32 0, i32 0
  store i32 0, ptr %44, align 8, !tbaa !16
  call void @llvm.lifetime.start.p0(i64 24, ptr %14) #8
  call void @llvm.memcpy.p0.p0.i64(ptr align 8 %14, ptr align 8 @__const.cmd_refs_migrate.errbuf, i64 24, i1 false)
  call void @llvm.lifetime.start.p0(i64 4, ptr %15) #8
  %45 = load i32, ptr %5, align 4, !tbaa !4
  %46 = load ptr, ptr %6, align 8, !tbaa !8
  %47 = load ptr, ptr %7, align 8, !tbaa !11
  %48 = getelementptr inbounds [3 x %struct.option], ptr %13, i64 0, i64 0
  %49 = getelementptr inbounds [2 x ptr], ptr %9, i64 0, i64 0
  %50 = call i32 @parse_options(i32 noundef %45, ptr noundef %46, ptr noundef %47, ptr noundef %48, ptr noundef %49, i32 noundef 0)
  store i32 %50, ptr %5, align 4, !tbaa !4
  %51 = load i32, ptr %5, align 4, !tbaa !4
  %52 = icmp ne i32 %51, 0
  br i1 %52, label %53, label %55

53:                                               ; preds = %4
  %54 = call ptr @_(ptr noundef @.str.9)
  call void @usage(ptr noundef %54) #9
  unreachable

55:                                               ; preds = %4
  %56 = load ptr, ptr %10, align 8, !tbaa !11
  %57 = icmp ne ptr %56, null
  br i1 %57, label %60, label %58

58:                                               ; preds = %55
  %59 = call ptr @_(ptr noundef @.str.10)
  call void @usage(ptr noundef %59) #9
  unreachable

60:                                               ; preds = %55
  %61 = load ptr, ptr %10, align 8, !tbaa !11
  %62 = call i32 @ref_storage_format_by_name(ptr noundef %61)
  store i32 %62, ptr %11, align 4, !tbaa !4
  %63 = load i32, ptr %11, align 4, !tbaa !4
  %64 = icmp eq i32 %63, 0
  br i1 %64, label %65, label %70

65:                                               ; preds = %60
  %66 = call ptr @_(ptr noundef @.str.11)
  %67 = load ptr, ptr %10, align 8, !tbaa !11
  %68 = call i32 (ptr, ...) @error(ptr noundef %66, ptr noundef %67)
  %69 = call i32 @const_error()
  store i32 %69, ptr %15, align 4, !tbaa !4
  br label %94

70:                                               ; preds = %60
  %71 = load ptr, ptr @the_repository, align 8, !tbaa !13
  %72 = getelementptr inbounds nuw %struct.repository, ptr %71, i32 0, i32 19
  %73 = load i32, ptr %72, align 8, !tbaa !30
  %74 = load i32, ptr %11, align 4, !tbaa !4
  %75 = icmp eq i32 %73, %74
  br i1 %75, label %76, label %82

76:                                               ; preds = %70
  %77 = call ptr @_(ptr noundef @.str.12)
  %78 = load i32, ptr %11, align 4, !tbaa !4
  %79 = call ptr @ref_storage_format_to_name(i32 noundef %78)
  %80 = call i32 (ptr, ...) @error(ptr noundef %77, ptr noundef %79)
  %81 = call i32 @const_error()
  store i32 %81, ptr %15, align 4, !tbaa !4
  br label %94

82:                                               ; preds = %70
  %83 = load ptr, ptr @the_repository, align 8, !tbaa !13
  %84 = load i32, ptr %11, align 4, !tbaa !4
  %85 = load i32, ptr %12, align 4, !tbaa !4
  %86 = call i32 @repo_migrate_ref_storage_format(ptr noundef %83, i32 noundef %84, i32 noundef %85, ptr noundef %14)
  %87 = icmp slt i32 %86, 0
  br i1 %87, label %88, label %93

88:                                               ; preds = %82
  %89 = getelementptr inbounds nuw %struct.strbuf, ptr %14, i32 0, i32 2
  %90 = load ptr, ptr %89, align 8, !tbaa !48
  %91 = call i32 (ptr, ...) @error(ptr noundef @.str.13, ptr noundef %90)
  %92 = call i32 @const_error()
  store i32 %92, ptr %15, align 4, !tbaa !4
  br label %94

93:                                               ; preds = %82
  store i32 0, ptr %15, align 4, !tbaa !4
  br label %94

94:                                               ; preds = %93, %88, %76, %65
  call void @strbuf_release(ptr noundef %14)
  %95 = load i32, ptr %15, align 4, !tbaa !4
  call void @llvm.lifetime.end.p0(i64 4, ptr %15) #8
  call void @llvm.lifetime.end.p0(i64 24, ptr %14) #8
  call void @llvm.lifetime.end.p0(i64 264, ptr %13) #8
  call void @llvm.lifetime.end.p0(i64 4, ptr %12) #8
  call void @llvm.lifetime.end.p0(i64 4, ptr %11) #8
  call void @llvm.lifetime.end.p0(i64 8, ptr %10) #8
  call void @llvm.lifetime.end.p0(i64 16, ptr %9) #8
  ret i32 %95
}