; Function Attrs: nounwind uwtable
define internal range(i32 -1, 1) i32 @cmd_refs_migrate(i32 noundef %0, ptr noundef %1, ptr noundef %2, ptr readnone captures(none) %3) #0 {
  %5 = alloca [2 x ptr], align 16
  %6 = alloca ptr, align 8
  %7 = alloca i32, align 4
  %8 = alloca [3 x %struct.option], align 16
  %9 = alloca %struct.strbuf, align 8
  call void @llvm.lifetime.start.p0(i64 16, ptr nonnull %5) #8
  call void @llvm.memcpy.p0.p0.i64(ptr noundef nonnull align 16 dereferenceable(16) %5, ptr noundef nonnull align 16 dereferenceable(16) @__const.cmd_refs_migrate.migrate_usage, i64 16, i1 false)
  call void @llvm.lifetime.start.p0(i64 8, ptr nonnull %6) #8
  store ptr null, ptr %6, align 8, !tbaa !16
  call void @llvm.lifetime.start.p0(i64 4, ptr nonnull %7) #8
  store i32 0, ptr %7, align 4, !tbaa !17
  call void @llvm.lifetime.start.p0(i64 264, ptr nonnull %8) #8
  store i32 10, ptr %8, align 16, !tbaa !8
  %10 = getelementptr inbounds nuw i8, ptr %8, i64 4
  store i32 0, ptr %10, align 4, !tbaa !18
  %11 = getelementptr inbounds nuw i8, ptr %8, i64 8
  store ptr @.str.4, ptr %11, align 8, !tbaa !13
  %12 = getelementptr inbounds nuw i8, ptr %8, i64 16
  store ptr %6, ptr %12, align 16, !tbaa !14
  %13 = getelementptr inbounds nuw i8, ptr %8, i64 24
  store ptr @.str.5, ptr %13, align 8, !tbaa !19
  %14 = getelementptr inbounds nuw i8, ptr %8, i64 32
  store ptr @.str.6, ptr %14, align 16, !tbaa !20
  %15 = getelementptr inbounds nuw i8, ptr %8, i64 40
  store i32 4, ptr %15, align 8, !tbaa !21
  %16 = getelementptr inbounds nuw i8, ptr %8, i64 44
  %17 = getelementptr inbounds nuw i8, ptr %8, i64 88
  call void @llvm.memset.p0.i64(ptr noundef nonnull align 4 dereferenceable(44) %16, i8 0, i64 44, i1 false)
  store i32 5, ptr %17, align 8, !tbaa !8
  %18 = getelementptr inbounds nuw i8, ptr %8, i64 92
  store i32 0, ptr %18, align 4, !tbaa !18
  %19 = getelementptr inbounds nuw i8, ptr %8, i64 96
  store ptr @.str.7, ptr %19, align 16, !tbaa !13
  %20 = getelementptr inbounds nuw i8, ptr %8, i64 104
  store ptr %7, ptr %20, align 8, !tbaa !14
  %21 = getelementptr inbounds nuw i8, ptr %8, i64 112
  store ptr null, ptr %21, align 16, !tbaa !19
  %22 = getelementptr inbounds nuw i8, ptr %8, i64 120
  store ptr @.str.8, ptr %22, align 8, !tbaa !20
  %23 = getelementptr inbounds nuw i8, ptr %8, i64 128
  store i32 2, ptr %23, align 16, !tbaa !21
  %24 = getelementptr inbounds nuw i8, ptr %8, i64 132
  store i32 0, ptr %24, align 4
  %25 = getelementptr inbounds nuw i8, ptr %8, i64 136
  store ptr null, ptr %25, align 8, !tbaa !22
  %26 = getelementptr inbounds nuw i8, ptr %8, i64 144
  store i64 1, ptr %26, align 16, !tbaa !23
  %27 = getelementptr inbounds nuw i8, ptr %8, i64 152
  call void @llvm.memset.p0.i64(ptr noundef nonnull align 8 dereferenceable(112) %27, i8 0, i64 112, i1 false)
  call void @llvm.lifetime.start.p0(i64 24, ptr nonnull %9) #8
  call void @llvm.memcpy.p0.p0.i64(ptr noundef nonnull align 8 dereferenceable(24) %9, ptr noundef nonnull align 8 dereferenceable(24) @__const.cmd_refs_migrate.errbuf, i64 24, i1 false)
  %28 = call i32 @parse_options(i32 noundef %0, ptr noundef %1, ptr noundef %2, ptr noundef nonnull %8, ptr noundef nonnull %5, i32 noundef 0) #8
  %.not = icmp eq i32 %28, 0
  br i1 %.not, label %31, label %29

29:                                               ; preds = %4
  %30 = call fastcc ptr @_(ptr noundef nonnull @.str.9)
  call void @usage(ptr noundef %30) #9
  unreachable

31:                                               ; preds = %4
  %32 = load ptr, ptr %6, align 8, !tbaa !16
  %.not10 = icmp eq ptr %32, null
  br i1 %.not10, label %33, label %35

33:                                               ; preds = %31
  %34 = call fastcc ptr @_(ptr noundef nonnull @.str.10)
  call void @usage(ptr noundef %34) #9
  unreachable

35:                                               ; preds = %31
  %36 = call i32 @ref_storage_format_by_name(ptr noundef nonnull %32) #8
  %37 = icmp eq i32 %36, 0
  br i1 %37, label %38, label %44

38:                                               ; preds = %35
  %39 = load i32, ptr @git_gettext_enabled, align 4, !tbaa !17
  %.not4.i = icmp eq i32 %39, 0
  br i1 %.not4.i, label %_.exit, label %40

40:                                               ; preds = %38
  %41 = call ptr @dcgettext(ptr noundef null, ptr noundef nonnull @.str.11, i32 noundef 5) #8
  br label %_.exit

_.exit:                                           ; preds = %38, %40
  %.0.i = phi ptr [ %41, %40 ], [ @.str.11, %38 ]
  %42 = load ptr, ptr %6, align 8, !tbaa !16
  %43 = call i32 (ptr, ...) @error(ptr noundef %.0.i, ptr noundef %42) #8
  br label %63

44:                                               ; preds = %35
  %45 = load ptr, ptr @the_repository, align 8, !tbaa !24
  %46 = getelementptr inbounds nuw i8, ptr %45, i64 416
  %47 = load i32, ptr %46, align 8, !tbaa !26
  %48 = icmp eq i32 %47, %36
  br i1 %48, label %49, label %55

49:                                               ; preds = %44
  %50 = load i32, ptr @git_gettext_enabled, align 4, !tbaa !17
  %.not4.i11 = icmp eq i32 %50, 0
  br i1 %.not4.i11, label %_.exit13, label %51

51:                                               ; preds = %49
  %52 = call ptr @dcgettext(ptr noundef null, ptr noundef nonnull @.str.12, i32 noundef 5) #8
  br label %_.exit13

_.exit13:                                         ; preds = %49, %51
  %.0.i12 = phi ptr [ %52, %51 ], [ @.str.12, %49 ]
  %53 = call ptr @ref_storage_format_to_name(i32 noundef %36) #8
  %54 = call i32 (ptr, ...) @error(ptr noundef %.0.i12, ptr noundef %53) #8
  br label %63

55:                                               ; preds = %44
  %56 = load i32, ptr %7, align 4, !tbaa !17
  %57 = call i32 @repo_migrate_ref_storage_format(ptr noundef nonnull %45, i32 noundef %36, i32 noundef %56, ptr noundef nonnull %9) #8
  %58 = icmp slt i32 %57, 0
  br i1 %58, label %59, label %63

59:                                               ; preds = %55
  %60 = getelementptr inbounds nuw i8, ptr %9, i64 16
  %61 = load ptr, ptr %60, align 8, !tbaa !44
  %62 = call i32 (ptr, ...) @error(ptr noundef nonnull @.str.13, ptr noundef %61) #8
  br label %63

63:                                               ; preds = %55, %59, %_.exit13, %_.exit
  %.0 = phi i32 [ -1, %_.exit ], [ -1, %_.exit13 ], [ -1, %59 ], [ 0, %55 ]
  call void @strbuf_release(ptr noundef nonnull %9) #8
  call void @llvm.lifetime.end.p0(i64 24, ptr nonnull %9) #8
  call void @llvm.lifetime.end.p0(i64 264, ptr nonnull %8) #8
  call void @llvm.lifetime.end.p0(i64 4, ptr nonnull %7) #8
  call void @llvm.lifetime.end.p0(i64 8, ptr nonnull %6) #8
  call void @llvm.lifetime.end.p0(i64 16, ptr nonnull %5) #8
  ret i32 %.0
}